target datalayout = "e-m:e-p270:32:32-p271:32:32-p272:64:64-i64:64-i128:128-f80:128-n8:16:32:64-S128"
target triple = "x86_64-pc-linux-gnu"

%struct.Par_ThData_t_ = type { ptr, i32, i32, i32, i32 }

; Function Attrs: nounwind uwtable
define ptr @Bmcs_ManWorkerThread(ptr noundef %0) #0 {
  %2 = alloca ptr, align 8
  %3 = alloca ptr, align 8
  %4 = alloca ptr, align 8
  store ptr %0, ptr %2, align 8
  %5 = load ptr, ptr %2, align 8
  store ptr %5, ptr %3, align 8
  %6 = load ptr, ptr %3, align 8
  %7 = getelementptr inbounds %struct.Par_ThData_t_, ptr %6, i32 0, i32 3
  store ptr %7, ptr %4, align 8
  br label %8

8:                                                ; preds = %20, %1
  br label %9

9:                                                ; preds = %13, %8
  %10 = load ptr, ptr %4, align 8
  %11 = load volatile i32, ptr %10, align 4
  %12 = icmp eq i32 %11, 0
  br i1 %12, label %13, label %14

13:                                               ; preds = %9
  br label %9, !llvm.loop !44

14:                                               ; preds = %9
  %15 = load ptr, ptr %3, align 8
  %16 = getelementptr inbounds %struct.Par_ThData_t_, ptr %15, i32 0, i32 0
  %17 = load ptr, ptr %16, align 8
  %18 = icmp eq ptr %17, null
  br i1 %18, label %19, label %20

19:                                               ; preds = %14
  call void @pthread_exit(ptr noundef null) #17
  unreachable

20:                                               ; preds = %14
  %21 = load ptr, ptr %3, align 8
  %22 = getelementptr inbounds %struct.Par_ThData_t_, ptr %21, i32 0, i32 0
  %23 = load ptr, ptr %22, align 8
  %24 = load ptr, ptr %3, align 8
  %25 = getelementptr inbounds %struct.Par_ThData_t_, ptr %24, i32 0, i32 1
  %26 = call i32 @satoko_solve_assumptions(ptr noundef %23, ptr noundef %25, i32 noundef 1)
  %27 = load ptr, ptr %3, align 8
  %28 = getelementptr inbounds %struct.Par_ThData_t_, ptr %27, i32 0, i32 4
  store i32 %26, ptr %28, align 4
  %29 = load ptr, ptr %3, align 8
  %30 = getelementptr inbounds %struct.Par_ThData_t_, ptr %29, i32 0, i32 3
  store i32 0, ptr %30, align 8
  br label %8
}