; Function Attrs: noreturn nounwind uwtable
define noalias noundef nonnull ptr @Bmcs_ManWorkerThread(ptr noundef %0) #9 {
  %2 = getelementptr inbounds nuw i8, ptr %0, i64 16
  %3 = getelementptr inbounds nuw i8, ptr %0, i64 8
  %4 = getelementptr inbounds nuw i8, ptr %0, i64 20
  br label %5

5:                                                ; preds = %.backedge, %1
  %6 = load volatile i32, ptr %2, align 4
  %7 = icmp eq i32 %6, 0
  br i1 %7, label %.backedge, label %8

.backedge:                                        ; preds = %5, %12
  br label %5, !llvm.loop !44

8:                                                ; preds = %5
  %9 = load ptr, ptr %0, align 8
  %10 = icmp eq ptr %9, null
  br i1 %10, label %11, label %12

11:                                               ; preds = %8
  tail call void @pthread_exit(ptr noundef null) #26
  unreachable

12:                                               ; preds = %8
  %13 = tail call i32 @satoko_solve_assumptions(ptr noundef nonnull %9, ptr noundef nonnull %3, i32 noundef 1) #23
  store i32 %13, ptr %4, align 4
  store i32 0, ptr %2, align 8
  br label %.backedge
}